; Function Attrs: nounwind uwtable
define internal fastcc void @StringAppend(ptr nocapture noundef %0, i8 noundef signext %1) unnamed_addr #0 {
  %3 = getelementptr inbounds i8, ptr %0, i64 12
  %4 = load i32, ptr %3, align 4
  %5 = add nsw i32 %4, 1
  %6 = getelementptr inbounds i8, ptr %0, i64 8
  %7 = load i32, ptr %6, align 8
  %.not = icmp slt i32 %5, %7
  br i1 %.not, label %._crit_edge, label %8

._crit_edge:                                      ; preds = %2
  %.phi.trans.insert = getelementptr inbounds i8, ptr %0, i64 16
  %.pre = load ptr, ptr %.phi.trans.insert, align 8
  br label %49

8:                                                ; preds = %2
  %9 = mul nsw i32 %7, 10
  store i32 %9, ptr %6, align 8
  %10 = load ptr, ptr %0, align 8
  %11 = getelementptr inbounds i8, ptr %10, i64 271344
  %12 = getelementptr inbounds i8, ptr %10, i64 271352
  %13 = load i32, ptr %12, align 8
  %14 = getelementptr inbounds i8, ptr %10, i64 271356
  %15 = load i32, ptr %14, align 4
  %16 = sub i32 %13, %15
  %17 = add i32 %9, 7
  %18 = and i32 %17, -8
  %19 = icmp ugt i32 %18, %16
  br i1 %19, label %20, label %thread-pre-split.i

20:                                               ; preds = %8
  %21 = icmp eq i32 %13, 0
  %22 = shl i32 %13, 1
  %storemerge.i = select i1 %21, i32 20480, i32 %22
  %storemerge25.i = tail call i32 @llvm.umax.i32(i32 %storemerge.i, i32 %18)
  store i32 %storemerge25.i, ptr %12, align 8
  store i32 0, ptr %14, align 4
  %23 = getelementptr inbounds i8, ptr %10, i64 271736
  %24 = load ptr, ptr %23, align 8
  %25 = tail call ptr @_cmsMallocZero(ptr noundef %24, i32 noundef %storemerge25.i) #17
  %.not.i.i = icmp eq ptr %25, null
  br i1 %.not.i.i, label %AllocBigBlock.exit.i, label %26

26:                                               ; preds = %20
  %27 = load ptr, ptr %23, align 8
  %28 = tail call ptr @_cmsMallocZero(ptr noundef %27, i32 noundef 16) #17
  %29 = icmp eq ptr %28, null
  br i1 %29, label %30, label %32

30:                                               ; preds = %26
  %31 = load ptr, ptr %23, align 8
  tail call void @_cmsFree(ptr noundef %31, ptr noundef nonnull %25) #17
  br label %AllocBigBlock.exit.i

32:                                               ; preds = %26
  %33 = getelementptr inbounds i8, ptr %28, i64 8
  store ptr %25, ptr %33, align 8
  %34 = getelementptr inbounds i8, ptr %10, i64 271336
  %35 = load ptr, ptr %34, align 8
  store ptr %35, ptr %28, align 8
  store ptr %28, ptr %34, align 8
  br label %AllocBigBlock.exit.i

AllocBigBlock.exit.i:                             ; preds = %32, %30, %20
  %.0.i.i = phi ptr [ null, %30 ], [ %25, %32 ], [ null, %20 ]
  store ptr %.0.i.i, ptr %11, align 8
  br label %36

thread-pre-split.i:                               ; preds = %8
  %.pr.i = load ptr, ptr %11, align 8
  br label %36

36:                                               ; preds = %thread-pre-split.i, %AllocBigBlock.exit.i
  %37 = phi ptr [ %.pr.i, %thread-pre-split.i ], [ %.0.i.i, %AllocBigBlock.exit.i ]
  %38 = icmp eq ptr %37, null
  br i1 %38, label %AllocChunk.exit.thread, label %AllocChunk.exit

AllocChunk.exit:                                  ; preds = %36
  %39 = load i32, ptr %14, align 4
  %40 = zext i32 %39 to i64
  %41 = getelementptr inbounds i8, ptr %37, i64 %40
  %42 = add i32 %39, %18
  store i32 %42, ptr %14, align 4
  %43 = getelementptr inbounds i8, ptr %0, i64 16
  %44 = load ptr, ptr %43, align 8
  %.not21 = icmp eq ptr %44, null
  br i1 %.not21, label %AllocChunk.exit.thread, label %45

45:                                               ; preds = %AllocChunk.exit
  %46 = load i32, ptr %3, align 4
  %47 = sext i32 %46 to i64
  tail call void @llvm.memcpy.p0.p0.i64(ptr nonnull align 1 %41, ptr nonnull align 1 %44, i64 %47, i1 false)
  br label %AllocChunk.exit.thread

AllocChunk.exit.thread:                           ; preds = %36, %45, %AllocChunk.exit
  %.0.i25 = phi ptr [ %41, %45 ], [ %41, %AllocChunk.exit ], [ null, %36 ]
  %48 = getelementptr inbounds i8, ptr %0, i64 16
  store ptr %.0.i25, ptr %48, align 8
  br label %49

49:                                               ; preds = %._crit_edge, %AllocChunk.exit.thread
  %50 = phi ptr [ %.pre, %._crit_edge ], [ %.0.i25, %AllocChunk.exit.thread ]
  %.not22 = icmp eq ptr %50, null
  br i1 %.not22, label %61, label %51

51:                                               ; preds = %49
  %52 = getelementptr inbounds i8, ptr %0, i64 16
  %53 = load i32, ptr %3, align 4
  %54 = add nsw i32 %53, 1
  store i32 %54, ptr %3, align 4
  %55 = sext i32 %53 to i64
  %56 = getelementptr inbounds i8, ptr %50, i64 %55
  store i8 %1, ptr %56, align 1
  %57 = load ptr, ptr %52, align 8
  %58 = load i32, ptr %3, align 4
  %59 = sext i32 %58 to i64
  %60 = getelementptr inbounds i8, ptr %57, i64 %59
  store i8 0, ptr %60, align 1
  br label %61

61:                                               ; preds = %51, %49
  ret void
}